; Function Attrs: mustprogress uwtable
define noundef double @_ZNK8QuantLib30ConstantCapFloorTermVolatility14volatilityImplEdd(ptr noundef nonnull align 8 dereferenceable(88) %this, double %0, double %1) unnamed_addr #6 align 2 {
entry:
  %volatility_ = getelementptr inbounds nuw i8, ptr %this, i64 72
  %call = tail call noundef nonnull align 8 dereferenceable(16) ptr @_ZNK8QuantLib6HandleINS_5QuoteEEptEv(ptr noundef nonnull align 8 dereferenceable(16) %volatility_)
  %2 = load ptr, ptr %call, align 8, !tbaa !74
  %cmp.not.i = icmp eq ptr %2, null
  br i1 %cmp.not.i, label %cond.false.i, label %_ZNK5boost10shared_ptrIN8QuantLib5QuoteEEptEv.exit, !prof !83

cond.false.i:                                     ; preds = %entry
  tail call void @_ZN5boost16assertion_failedEPKcS1_S1_l(ptr noundef nonnull @.str.5, ptr noundef nonnull @__PRETTY_FUNCTION__._ZNK5boost10shared_ptrIN8QuantLib5QuoteEEptEv, ptr noundef nonnull @.str.6, i64 noundef 784)
  %.pre.i = load ptr, ptr %call, align 8, !tbaa !74
  br label %_ZNK5boost10shared_ptrIN8QuantLib5QuoteEEptEv.exit

_ZNK5boost10shared_ptrIN8QuantLib5QuoteEEptEv.exit: ; preds = %entry, %cond.false.i
  %3 = phi ptr [ %2, %entry ], [ %.pre.i, %cond.false.i ]
  %vtable = load ptr, ptr %3, align 8, !tbaa !28
  %vfn = getelementptr inbounds i8, ptr %vtable, i64 16
  %4 = load ptr, ptr %vfn, align 8
  %call4 = tail call noundef double %4(ptr noundef nonnull align 8 dereferenceable(8) %3)
  ret double %call4
}